; Function Attrs: mustprogress nofree norecurse nosync nounwind willreturn memory(read, inaccessiblemem: none) uwtable
define hidden noundef ptr @_ZNK6spacer16pred_transformer15get_last_rf_tagEv(ptr noundef nonnull readonly align 8 captures(none) dereferenceable(472) %0) local_unnamed_addr #7 align 2 {
  %2 = getelementptr inbounds nuw i8, ptr %0, i64 216
  %3 = load ptr, ptr %2, align 8, !tbaa !319
  %4 = icmp eq ptr %3, null
  br i1 %4, label %_ZNK15ref_vector_coreIN6spacer10reach_factE21ref_unmanaged_wrapperIS1_EE5emptyEv.exit.thread, label %_ZNK15ref_vector_coreIN6spacer10reach_factE21ref_unmanaged_wrapperIS1_EE5emptyEv.exit

_ZNK15ref_vector_coreIN6spacer10reach_factE21ref_unmanaged_wrapperIS1_EE5emptyEv.exit: ; preds = %1
  %5 = getelementptr inbounds i8, ptr %3, i64 -4
  %6 = load i32, ptr %5, align 4, !tbaa !100
  %7 = icmp eq i32 %6, 0
  br i1 %7, label %_ZNK15ref_vector_coreIN6spacer10reach_factE21ref_unmanaged_wrapperIS1_EE5emptyEv.exit.thread, label %_ZNK15ref_vector_coreIN6spacer10reach_factE21ref_unmanaged_wrapperIS1_EE4backEv.exit

_ZNK15ref_vector_coreIN6spacer10reach_factE21ref_unmanaged_wrapperIS1_EE4backEv.exit: ; preds = %_ZNK15ref_vector_coreIN6spacer10reach_factE21ref_unmanaged_wrapperIS1_EE5emptyEv.exit
  %8 = add i32 %6, -1
  %9 = zext i32 %8 to i64
  %10 = getelementptr inbounds nuw ptr, ptr %3, i64 %9
  %11 = load ptr, ptr %10, align 8, !tbaa !321
  %12 = getelementptr inbounds nuw i8, ptr %11, i64 48
  %13 = load ptr, ptr %12, align 8, !tbaa !323
  br label %_ZNK15ref_vector_coreIN6spacer10reach_factE21ref_unmanaged_wrapperIS1_EE5emptyEv.exit.thread

_ZNK15ref_vector_coreIN6spacer10reach_factE21ref_unmanaged_wrapperIS1_EE5emptyEv.exit.thread: ; preds = %1, %_ZNK15ref_vector_coreIN6spacer10reach_factE21ref_unmanaged_wrapperIS1_EE5emptyEv.exit, %_ZNK15ref_vector_coreIN6spacer10reach_factE21ref_unmanaged_wrapperIS1_EE4backEv.exit
  %14 = phi ptr [ %13, %_ZNK15ref_vector_coreIN6spacer10reach_factE21ref_unmanaged_wrapperIS1_EE4backEv.exit ], [ null, %_ZNK15ref_vector_coreIN6spacer10reach_factE21ref_unmanaged_wrapperIS1_EE5emptyEv.exit ], [ null, %1 ]
  ret ptr %14
}